target datalayout = "e-m:e-p270:32:32-p271:32:32-p272:64:64-i64:64-i128:128-f80:128-n8:16:32:64-S128"
target triple = "x86_64-pc-linux-gnu"

%"class.std::__cxx11::basic_string" = type { %"struct.std::__cxx11::basic_string<char>::_Alloc_hider", i64, %union.anon }
%"struct.std::__cxx11::basic_string<char>::_Alloc_hider" = type { ptr }
%union.anon = type { i64, [8 x i8] }

@_ZN6Assimp3FBX4UtilL16to_base64_stringE = internal constant [65 x i8] c"ABCDEFGHIJKLMNOPQRSTUVWXYZabcdefghijklmnopqrstuvwxyz0123456789+/\00", align 16

; Function Attrs: mustprogress nounwind uwtable
define available_externally noundef ptr @_ZNKSt7__cxx1112basic_stringIcSt11char_traitsIcESaIcEE7_M_dataEv(ptr noundef nonnull align 8 dereferenceable(32) %0) #0 align 2 {
  %2 = alloca ptr, align 8
  store ptr %0, ptr %2, align 8
  %3 = load ptr, ptr %2, align 8
  %4 = getelementptr inbounds nuw %"class.std::__cxx11::basic_string", ptr %3, i32 0, i32 0
  %5 = getelementptr inbounds nuw %"struct.std::__cxx11::basic_string<char>::_Alloc_hider", ptr %4, i32 0, i32 0
  %6 = load ptr, ptr %5, align 8
  ret ptr %6
}

; Function Attrs: mustprogress nounwind uwtable
define available_externally noundef nonnull align 1 dereferenceable(1) ptr @_ZNSt7__cxx1112basic_stringIcSt11char_traitsIcESaIcEEixEm(ptr noundef nonnull align 8 dereferenceable(32) %0, i64 noundef %1) #0 align 2 {
  %3 = alloca ptr, align 8
  %4 = alloca i64, align 8
  store ptr %0, ptr %3, align 8
  store i64 %1, ptr %4, align 8
  %5 = load ptr, ptr %3, align 8
  br label %6

6:                                                ; preds = %2
  br label %7

7:                                                ; preds = %6
  %8 = call noundef ptr @_ZNKSt7__cxx1112basic_stringIcSt11char_traitsIcESaIcEE7_M_dataEv(ptr noundef nonnull align 8 dereferenceable(32) %5)
  %9 = load i64, ptr %4, align 8
  %10 = getelementptr inbounds nuw i8, ptr %8, i64 %9
  ret ptr %10
}

; Function Attrs: mustprogress nounwind uwtable
define hidden noundef signext i8 @_ZN6Assimp3FBX4Util12EncodeBase64Ec(i8 noundef signext %0) #0 {
  %2 = alloca i8, align 1
  store i8 %0, ptr %2, align 1
  %3 = load i8, ptr %2, align 1
  %4 = sext i8 %3 to i64
  %5 = getelementptr inbounds nuw [65 x i8], ptr @_ZN6Assimp3FBX4UtilL16to_base64_stringE, i64 0, i64 %4
  %6 = load i8, ptr %5, align 1
  ret i8 %6
}

; Function Attrs: mustprogress uwtable
define hidden void @_ZN6Assimp3FBX4Util15EncodeByteBlockEPKcRNSt7__cxx1112basic_stringIcSt11char_traitsIcESaIcEEEm(ptr noundef %0, ptr noundef nonnull align 8 dereferenceable(32) %1, i64 noundef %2) #1 {
  %4 = alloca ptr, align 8
  %5 = alloca ptr, align 8
  %6 = alloca i64, align 8
  %7 = alloca i8, align 1
  %8 = alloca i8, align 1
  %9 = alloca i8, align 1
  %10 = alloca i8, align 1
  store ptr %0, ptr %4, align 8
  store ptr %1, ptr %5, align 8
  store i64 %2, ptr %6, align 8
  call void @llvm.lifetime.start.p0(i64 1, ptr %7) #13
  %11 = load ptr, ptr %4, align 8
  %12 = getelementptr inbounds i8, ptr %11, i64 0
  %13 = load i8, ptr %12, align 1
  %14 = sext i8 %13 to i32
  %15 = and i32 %14, 252
  %16 = ashr i32 %15, 2
  %17 = trunc i32 %16 to i8
  store i8 %17, ptr %7, align 1
  call void @llvm.lifetime.start.p0(i64 1, ptr %8) #13
  %18 = load ptr, ptr %4, align 8
  %19 = getelementptr inbounds i8, ptr %18, i64 0
  %20 = load i8, ptr %19, align 1
  %21 = sext i8 %20 to i32
  %22 = and i32 %21, 3
  %23 = shl i32 %22, 4
  %24 = load ptr, ptr %4, align 8
  %25 = getelementptr inbounds i8, ptr %24, i64 1
  %26 = load i8, ptr %25, align 1
  %27 = sext i8 %26 to i32
  %28 = and i32 %27, 240
  %29 = ashr i32 %28, 4
  %30 = or i32 %23, %29
  %31 = trunc i32 %30 to i8
  store i8 %31, ptr %8, align 1
  call void @llvm.lifetime.start.p0(i64 1, ptr %9) #13
  %32 = load ptr, ptr %4, align 8
  %33 = getelementptr inbounds i8, ptr %32, i64 1
  %34 = load i8, ptr %33, align 1
  %35 = sext i8 %34 to i32
  %36 = and i32 %35, 15
  %37 = shl i32 %36, 2
  %38 = load ptr, ptr %4, align 8
  %39 = getelementptr inbounds i8, ptr %38, i64 2
  %40 = load i8, ptr %39, align 1
  %41 = sext i8 %40 to i32
  %42 = and i32 %41, 192
  %43 = ashr i32 %42, 6
  %44 = or i32 %37, %43
  %45 = trunc i32 %44 to i8
  store i8 %45, ptr %9, align 1
  call void @llvm.lifetime.start.p0(i64 1, ptr %10) #13
  %46 = load ptr, ptr %4, align 8
  %47 = getelementptr inbounds i8, ptr %46, i64 2
  %48 = load i8, ptr %47, align 1
  %49 = sext i8 %48 to i32
  %50 = and i32 %49, 63
  %51 = trunc i32 %50 to i8
  store i8 %51, ptr %10, align 1
  %52 = load i8, ptr %7, align 1
  %53 = call noundef signext i8 @_ZN6Assimp3FBX4Util12EncodeBase64Ec(i8 noundef signext %52)
  %54 = load ptr, ptr %5, align 8
  %55 = load i64, ptr %6, align 8
  %56 = add i64 %55, 0
  %57 = call noundef nonnull align 1 dereferenceable(1) ptr @_ZNSt7__cxx1112basic_stringIcSt11char_traitsIcESaIcEEixEm(ptr noundef nonnull align 8 dereferenceable(32) %54, i64 noundef %56)
  store i8 %53, ptr %57, align 1
  %58 = load i8, ptr %8, align 1
  %59 = call noundef signext i8 @_ZN6Assimp3FBX4Util12EncodeBase64Ec(i8 noundef signext %58)
  %60 = load ptr, ptr %5, align 8
  %61 = load i64, ptr %6, align 8
  %62 = add i64 %61, 1
  %63 = call noundef nonnull align 1 dereferenceable(1) ptr @_ZNSt7__cxx1112basic_stringIcSt11char_traitsIcESaIcEEixEm(ptr noundef nonnull align 8 dereferenceable(32) %60, i64 noundef %62)
  store i8 %59, ptr %63, align 1
  %64 = load i8, ptr %9, align 1
  %65 = call noundef signext i8 @_ZN6Assimp3FBX4Util12EncodeBase64Ec(i8 noundef signext %64)
  %66 = load ptr, ptr %5, align 8
  %67 = load i64, ptr %6, align 8
  %68 = add i64 %67, 2
  %69 = call noundef nonnull align 1 dereferenceable(1) ptr @_ZNSt7__cxx1112basic_stringIcSt11char_traitsIcESaIcEEixEm(ptr noundef nonnull align 8 dereferenceable(32) %66, i64 noundef %68)
  store i8 %65, ptr %69, align 1
  %70 = load i8, ptr %10, align 1
  %71 = call noundef signext i8 @_ZN6Assimp3FBX4Util12EncodeBase64Ec(i8 noundef signext %70)
  %72 = load ptr, ptr %5, align 8
  %73 = load i64, ptr %6, align 8
  %74 = add i64 %73, 3
  %75 = call noundef nonnull align 1 dereferenceable(1) ptr @_ZNSt7__cxx1112basic_stringIcSt11char_traitsIcESaIcEEixEm(ptr noundef nonnull align 8 dereferenceable(32) %72, i64 noundef %74)
  store i8 %71, ptr %75, align 1
  call void @llvm.lifetime.end.p0(i64 1, ptr %10) #13
  call void @llvm.lifetime.end.p0(i64 1, ptr %9) #13
  call void @llvm.lifetime.end.p0(i64 1, ptr %8) #13
  call void @llvm.lifetime.end.p0(i64 1, ptr %7) #13
  ret void
}