; Function Attrs: mustprogress nofree norecurse nosync nounwind willreturn memory(write, argmem: readwrite, inaccessiblemem: none) uwtable
define hidden void @_ZN6Assimp3FBX4Util15EncodeByteBlockEPKcRNSt7__cxx1112basic_stringIcSt11char_traitsIcESaIcEEEm(ptr noundef readonly captures(none) %0, ptr noundef nonnull readonly align 8 captures(none) dereferenceable(32) %1, i64 noundef %2) local_unnamed_addr #6 {
  %4 = load i8, ptr %0, align 1
  %5 = lshr i8 %4, 2
  %6 = shl i8 %4, 4
  %7 = and i8 %6, 48
  %8 = getelementptr inbounds nuw i8, ptr %0, i64 1
  %9 = load i8, ptr %8, align 1
  %10 = lshr i8 %9, 4
  %11 = or disjoint i8 %10, %7
  %12 = shl i8 %9, 2
  %13 = and i8 %12, 60
  %14 = getelementptr inbounds nuw i8, ptr %0, i64 2
  %15 = load i8, ptr %14, align 1
  %16 = lshr i8 %15, 6
  %17 = or disjoint i8 %16, %13
  %18 = and i8 %15, 63
  %19 = zext nneg i8 %5 to i64
  %20 = getelementptr inbounds nuw [65 x i8], ptr @_ZN6Assimp3FBX4UtilL16to_base64_stringE, i64 0, i64 %19
  %21 = load i8, ptr %20, align 1
  %22 = load ptr, ptr %1, align 8
  %23 = getelementptr inbounds nuw i8, ptr %22, i64 %2
  store i8 %21, ptr %23, align 1
  %24 = zext nneg i8 %11 to i64
  %25 = getelementptr inbounds nuw [65 x i8], ptr @_ZN6Assimp3FBX4UtilL16to_base64_stringE, i64 0, i64 %24
  %26 = load i8, ptr %25, align 1
  %27 = load ptr, ptr %1, align 8
  %28 = getelementptr i8, ptr %27, i64 %2
  %29 = getelementptr i8, ptr %28, i64 1
  store i8 %26, ptr %29, align 1
  %30 = zext nneg i8 %17 to i64
  %31 = getelementptr inbounds nuw [65 x i8], ptr @_ZN6Assimp3FBX4UtilL16to_base64_stringE, i64 0, i64 %30
  %32 = load i8, ptr %31, align 1
  %33 = load ptr, ptr %1, align 8
  %34 = getelementptr i8, ptr %33, i64 %2
  %35 = getelementptr i8, ptr %34, i64 2
  store i8 %32, ptr %35, align 1
  %36 = zext nneg i8 %18 to i64
  %37 = getelementptr inbounds nuw [65 x i8], ptr @_ZN6Assimp3FBX4UtilL16to_base64_stringE, i64 0, i64 %36
  %38 = load i8, ptr %37, align 1
  %39 = load ptr, ptr %1, align 8
  %40 = getelementptr i8, ptr %39, i64 %2
  %41 = getelementptr i8, ptr %40, i64 3
  store i8 %38, ptr %41, align 1
  ret void
}